; Function Attrs: mustprogress uwtable
define hidden void @_ZN5nlsat7explain5resetEv(ptr noundef nonnull readonly align 8 captures(none) dereferenceable(8) %0) local_unnamed_addr #4 align 2 {
  %2 = load ptr, ptr %0, align 8, !tbaa !3
  %3 = getelementptr inbounds nuw i8, ptr %2, i64 192
  %4 = getelementptr inbounds nuw i8, ptr %2, i64 200
  %5 = load ptr, ptr %4, align 8, !tbaa !55
  %6 = icmp eq ptr %5, null
  br i1 %6, label %_ZN5nlsat21scoped_literal_vector5resetEv.exit, label %_ZN6vectorIN3sat7literalELb0EjE3endEv.exit.i

_ZN6vectorIN3sat7literalELb0EjE3endEv.exit.i:     ; preds = %1
  %7 = getelementptr inbounds i8, ptr %5, i64 -4
  %8 = load i32, ptr %7, align 4, !tbaa !61
  %9 = zext i32 %8 to i64
  %10 = getelementptr inbounds nuw %"class.sat::literal", ptr %5, i64 %9
  %.not8.i = icmp eq i32 %8, 0
  br i1 %.not8.i, label %._crit_edge.thread13.i, label %.lr.ph.i

._crit_edge.i:                                    ; preds = %.lr.ph.i
  %.pre.i = load ptr, ptr %4, align 8, !tbaa !55
  %.not.i.i = icmp eq ptr %.pre.i, null
  br i1 %.not.i.i, label %_ZN5nlsat21scoped_literal_vector5resetEv.exit, label %._crit_edge.thread13.i

._crit_edge.thread13.i:                           ; preds = %._crit_edge.i, %_ZN6vectorIN3sat7literalELb0EjE3endEv.exit.i
  %11 = phi ptr [ %.pre.i, %._crit_edge.i ], [ %5, %_ZN6vectorIN3sat7literalELb0EjE3endEv.exit.i ]
  %12 = getelementptr inbounds i8, ptr %11, i64 -4
  store i32 0, ptr %12, align 4, !tbaa !61
  br label %_ZN5nlsat21scoped_literal_vector5resetEv.exit

.lr.ph.i:                                         ; preds = %_ZN6vectorIN3sat7literalELb0EjE3endEv.exit.i, %.lr.ph.i
  %.09.i = phi ptr [ %15, %.lr.ph.i ], [ %5, %_ZN6vectorIN3sat7literalELb0EjE3endEv.exit.i ]
  %.sroa.01.0.copyload.i = load i32, ptr %.09.i, align 4, !tbaa !61
  %13 = load ptr, ptr %3, align 8, !tbaa !63
  %14 = lshr i32 %.sroa.01.0.copyload.i, 1
  tail call void @_ZN5nlsat6solver7dec_refEj(ptr noundef nonnull align 8 dereferenceable(16) %13, i32 noundef %14)
  %15 = getelementptr inbounds nuw i8, ptr %.09.i, i64 4
  %.not.i = icmp eq ptr %15, %10
  br i1 %.not.i, label %._crit_edge.i, label %.lr.ph.i

_ZN5nlsat21scoped_literal_vector5resetEv.exit:    ; preds = %1, %._crit_edge.i, %._crit_edge.thread13.i
  %16 = load ptr, ptr %0, align 8, !tbaa !3
  %17 = getelementptr inbounds nuw i8, ptr %16, i64 208
  %18 = getelementptr inbounds nuw i8, ptr %16, i64 216
  %19 = load ptr, ptr %18, align 8, !tbaa !55
  %20 = icmp eq ptr %19, null
  br i1 %20, label %_ZN5nlsat21scoped_literal_vector5resetEv.exit11, label %_ZN6vectorIN3sat7literalELb0EjE3endEv.exit.i1

_ZN6vectorIN3sat7literalELb0EjE3endEv.exit.i1:    ; preds = %_ZN5nlsat21scoped_literal_vector5resetEv.exit
  %21 = getelementptr inbounds i8, ptr %19, i64 -4
  %22 = load i32, ptr %21, align 4, !tbaa !61
  %23 = zext i32 %22 to i64
  %24 = getelementptr inbounds nuw %"class.sat::literal", ptr %19, i64 %23
  %.not8.i2 = icmp eq i32 %22, 0
  br i1 %.not8.i2, label %._crit_edge.thread13.i10, label %.lr.ph.i3

._crit_edge.i7:                                   ; preds = %.lr.ph.i3
  %.pre.i8 = load ptr, ptr %18, align 8, !tbaa !55
  %.not.i.i9 = icmp eq ptr %.pre.i8, null
  br i1 %.not.i.i9, label %_ZN5nlsat21scoped_literal_vector5resetEv.exit11, label %._crit_edge.thread13.i10

._crit_edge.thread13.i10:                         ; preds = %._crit_edge.i7, %_ZN6vectorIN3sat7literalELb0EjE3endEv.exit.i1
  %25 = phi ptr [ %.pre.i8, %._crit_edge.i7 ], [ %19, %_ZN6vectorIN3sat7literalELb0EjE3endEv.exit.i1 ]
  %26 = getelementptr inbounds i8, ptr %25, i64 -4
  store i32 0, ptr %26, align 4, !tbaa !61
  br label %_ZN5nlsat21scoped_literal_vector5resetEv.exit11

.lr.ph.i3:                                        ; preds = %_ZN6vectorIN3sat7literalELb0EjE3endEv.exit.i1, %.lr.ph.i3
  %.09.i4 = phi ptr [ %29, %.lr.ph.i3 ], [ %19, %_ZN6vectorIN3sat7literalELb0EjE3endEv.exit.i1 ]
  %.sroa.01.0.copyload.i5 = load i32, ptr %.09.i4, align 4, !tbaa !61
  %27 = load ptr, ptr %17, align 8, !tbaa !63
  %28 = lshr i32 %.sroa.01.0.copyload.i5, 1
  tail call void @_ZN5nlsat6solver7dec_refEj(ptr noundef nonnull align 8 dereferenceable(16) %27, i32 noundef %28)
  %29 = getelementptr inbounds nuw i8, ptr %.09.i4, i64 4
  %.not.i6 = icmp eq ptr %29, %24
  br i1 %.not.i6, label %._crit_edge.i7, label %.lr.ph.i3

_ZN5nlsat21scoped_literal_vector5resetEv.exit11:  ; preds = %_ZN5nlsat21scoped_literal_vector5resetEv.exit, %._crit_edge.i7, %._crit_edge.thread13.i10
  ret void
}